; Function Attrs: mustprogress nounwind uwtable
define void @_ZN5faiss12FileIOReaderC2EP8_IO_FILE(ptr noundef nonnull align 8 dereferenceable(49) %0, ptr noundef %1) unnamed_addr #1 align 2 {
  store ptr getelementptr inbounds ({ [6 x ptr] }, ptr @_ZTVN5faiss8IOReaderE, i64 0, i32 0, i64 2), ptr %0, align 8
  %3 = getelementptr inbounds i8, ptr %0, i64 8
  tail call void @_ZNSt7__cxx1112basic_stringIcSt11char_traitsIcESaIcEEC1Ev(ptr noundef nonnull align 8 dereferenceable(32) %3) #21
  store ptr getelementptr inbounds ({ [6 x ptr] }, ptr @_ZTVN5faiss12FileIOReaderE, i64 0, i32 0, i64 2), ptr %0, align 8
  %4 = getelementptr inbounds i8, ptr %0, i64 40
  store ptr %1, ptr %4, align 8
  %5 = getelementptr inbounds i8, ptr %0, i64 48
  store i8 0, ptr %5, align 8
  ret void
}